; Function Attrs: mustprogress nounwind uwtable
define hidden void @_ZN4llvh23ItaniumPartialDemanglerD2Ev(ptr nocapture noundef nonnull readonly align 8 dereferenceable(16) %this) unnamed_addr #1 align 2 {
entry:
  %Context = getelementptr inbounds i8, ptr %this, i64 8
  %0 = load ptr, ptr %Context, align 8
  %isnull = icmp eq ptr %0, null
  br i1 %isnull, label %delete.end, label %delete.notnull

delete.notnull:                                   ; preds = %entry
  %ASTAllocator.i = getelementptr inbounds i8, ptr %0, i64 752
  %BlockList.i.i.i.i = getelementptr inbounds i8, ptr %0, i64 4848
  %1 = load ptr, ptr %BlockList.i.i.i.i, align 16
  %tobool.not2.i.i.i.i = icmp eq ptr %1, null
  br i1 %tobool.not2.i.i.i.i, label %_ZN12_GLOBAL__N_116DefaultAllocatorD2Ev.exit.i, label %while.body.i.i.i.i

while.body.i.i.i.i:                               ; preds = %delete.notnull, %if.end.i.i.i.i
  %2 = phi ptr [ %4, %if.end.i.i.i.i ], [ %1, %delete.notnull ]
  %3 = load ptr, ptr %2, align 8
  store ptr %3, ptr %BlockList.i.i.i.i, align 16
  %cmp.not.i.i.i.i = icmp eq ptr %2, %ASTAllocator.i
  br i1 %cmp.not.i.i.i.i, label %if.end.i.i.i.i, label %if.then.i.i.i.i

if.then.i.i.i.i:                                  ; preds = %while.body.i.i.i.i
  tail call void @free(ptr noundef nonnull %2) #20
  %.pre.i.i.i.i = load ptr, ptr %BlockList.i.i.i.i, align 16
  br label %if.end.i.i.i.i

if.end.i.i.i.i:                                   ; preds = %if.then.i.i.i.i, %while.body.i.i.i.i
  %4 = phi ptr [ %.pre.i.i.i.i, %if.then.i.i.i.i ], [ %3, %while.body.i.i.i.i ]
  %tobool.not.i.i.i.i = icmp eq ptr %4, null
  br i1 %tobool.not.i.i.i.i, label %_ZN12_GLOBAL__N_116DefaultAllocatorD2Ev.exit.i, label %while.body.i.i.i.i, !llvm.loop !7

_ZN12_GLOBAL__N_116DefaultAllocatorD2Ev.exit.i:   ; preds = %if.end.i.i.i.i, %delete.notnull
  tail call void @llvm.memset.p0.i64(ptr noundef nonnull align 16 dereferenceable(16) %ASTAllocator.i, i8 0, i64 16, i1 false)
  store ptr %ASTAllocator.i, ptr %BlockList.i.i.i.i, align 16
  %ForwardTemplateRefs.i = getelementptr inbounds i8, ptr %0, i64 664
  %5 = load ptr, ptr %ForwardTemplateRefs.i, align 8
  %Inline.i.i.i = getelementptr inbounds i8, ptr %0, i64 688
  %cmp.i.i.i = icmp eq ptr %5, %Inline.i.i.i
  br i1 %cmp.i.i.i, label %_ZN4llvh16itanium_demangle14PODSmallVectorIPNS0_24ForwardTemplateReferenceELm4EED2Ev.exit.i, label %if.then.i.i

if.then.i.i:                                      ; preds = %_ZN12_GLOBAL__N_116DefaultAllocatorD2Ev.exit.i
  tail call void @free(ptr noundef %5) #20
  br label %_ZN4llvh16itanium_demangle14PODSmallVectorIPNS0_24ForwardTemplateReferenceELm4EED2Ev.exit.i

_ZN4llvh16itanium_demangle14PODSmallVectorIPNS0_24ForwardTemplateReferenceELm4EED2Ev.exit.i: ; preds = %if.then.i.i, %_ZN12_GLOBAL__N_116DefaultAllocatorD2Ev.exit.i
  %TemplateParams.i = getelementptr inbounds i8, ptr %0, i64 576
  %6 = load ptr, ptr %TemplateParams.i, align 8
  %Inline.i.i1.i = getelementptr inbounds i8, ptr %0, i64 600
  %cmp.i.i2.i = icmp eq ptr %6, %Inline.i.i1.i
  br i1 %cmp.i.i2.i, label %_ZN4llvh16itanium_demangle14PODSmallVectorIPNS0_4NodeELm8EED2Ev.exit.i, label %if.then.i3.i

if.then.i3.i:                                     ; preds = %_ZN4llvh16itanium_demangle14PODSmallVectorIPNS0_24ForwardTemplateReferenceELm4EED2Ev.exit.i
  tail call void @free(ptr noundef %6) #20
  br label %_ZN4llvh16itanium_demangle14PODSmallVectorIPNS0_4NodeELm8EED2Ev.exit.i

_ZN4llvh16itanium_demangle14PODSmallVectorIPNS0_4NodeELm8EED2Ev.exit.i: ; preds = %if.then.i3.i, %_ZN4llvh16itanium_demangle14PODSmallVectorIPNS0_24ForwardTemplateReferenceELm4EED2Ev.exit.i
  %Subs.i = getelementptr inbounds i8, ptr %0, i64 296
  %7 = load ptr, ptr %Subs.i, align 8
  %Inline.i.i4.i = getelementptr inbounds i8, ptr %0, i64 320
  %cmp.i.i5.i = icmp eq ptr %7, %Inline.i.i4.i
  br i1 %cmp.i.i5.i, label %_ZN4llvh16itanium_demangle14PODSmallVectorIPNS0_4NodeELm32EED2Ev.exit.i, label %if.then.i6.i

if.then.i6.i:                                     ; preds = %_ZN4llvh16itanium_demangle14PODSmallVectorIPNS0_4NodeELm8EED2Ev.exit.i
  tail call void @free(ptr noundef %7) #20
  br label %_ZN4llvh16itanium_demangle14PODSmallVectorIPNS0_4NodeELm32EED2Ev.exit.i

_ZN4llvh16itanium_demangle14PODSmallVectorIPNS0_4NodeELm32EED2Ev.exit.i: ; preds = %if.then.i6.i, %_ZN4llvh16itanium_demangle14PODSmallVectorIPNS0_4NodeELm8EED2Ev.exit.i
  %Names.i = getelementptr inbounds i8, ptr %0, i64 16
  %8 = load ptr, ptr %Names.i, align 8
  %Inline.i.i7.i = getelementptr inbounds i8, ptr %0, i64 40
  %cmp.i.i8.i = icmp eq ptr %8, %Inline.i.i7.i
  br i1 %cmp.i.i8.i, label %_ZN4llvh16itanium_demangle2DbIN12_GLOBAL__N_116DefaultAllocatorEED2Ev.exit, label %if.then.i9.i

if.then.i9.i:                                     ; preds = %_ZN4llvh16itanium_demangle14PODSmallVectorIPNS0_4NodeELm32EED2Ev.exit.i
  tail call void @free(ptr noundef %8) #20
  br label %_ZN4llvh16itanium_demangle2DbIN12_GLOBAL__N_116DefaultAllocatorEED2Ev.exit

_ZN4llvh16itanium_demangle2DbIN12_GLOBAL__N_116DefaultAllocatorEED2Ev.exit: ; preds = %_ZN4llvh16itanium_demangle14PODSmallVectorIPNS0_4NodeELm32EED2Ev.exit.i, %if.then.i9.i
  tail call void @_ZdlPv(ptr noundef nonnull %0) #24
  br label %delete.end

delete.end:                                       ; preds = %_ZN4llvh16itanium_demangle2DbIN12_GLOBAL__N_116DefaultAllocatorEED2Ev.exit, %entry
  ret void
}